; Function Attrs: mustprogress uwtable
define void @_ZN6icu_7515AlphabeticIndex12clearBucketsEv(ptr nocapture noundef nonnull align 8 dereferenceable(400) %this) local_unnamed_addr #3 align 2 {
entry:
  %buckets_ = getelementptr inbounds i8, ptr %this, i64 72
  %0 = load ptr, ptr %buckets_, align 8
  %cmp.not = icmp eq ptr %0, null
  br i1 %cmp.not, label %if.end, label %delete.notnull

delete.notnull:                                   ; preds = %entry
  %vtable = load ptr, ptr %0, align 8
  %vfn = getelementptr inbounds i8, ptr %vtable, i64 8
  %1 = load ptr, ptr %vfn, align 8
  tail call void %1(ptr noundef nonnull align 8 dereferenceable(24) %0) #16
  store ptr null, ptr %buckets_, align 8
  %labelsIterIndex_.i = getelementptr inbounds i8, ptr %this, i64 16
  store i32 -1, ptr %labelsIterIndex_.i, align 8
  %currentBucket_.i = getelementptr inbounds i8, ptr %this, i64 24
  store ptr null, ptr %currentBucket_.i, align 8
  br label %if.end

if.end:                                           ; preds = %delete.notnull, %entry
  ret void
}